target datalayout = "e-m:e-p270:32:32-p271:32:32-p272:64:64-i64:64-i128:128-f80:128-n8:16:32:64-S128"
target triple = "x86_64-pc-linux-gnu"

@.str.31 = private unnamed_addr constant [28 x i8] c"../openssl/test/hpke_test.c\00", align 1
@.str.63 = private unnamed_addr constant [25 x i8] c"publen <= sizeof(pubbuf)\00", align 1
@.str.64 = private unnamed_addr constant [16 x i8] c"encoded-pub-key\00", align 1
@.str.65 = private unnamed_addr constant [4 x i8] c"erv\00", align 1
@.str.66 = private unnamed_addr constant [7 x i8] c"pubbuf\00", align 1
@.str.67 = private unnamed_addr constant [4 x i8] c"pub\00", align 1

; Function Attrs: nounwind uwtable
define internal i32 @cmpkey(ptr noundef %0, ptr noundef %1, i64 noundef %2) #0 {
  %4 = alloca i32, align 4
  %5 = alloca ptr, align 8
  %6 = alloca ptr, align 8
  %7 = alloca i64, align 8
  %8 = alloca [256 x i8], align 16
  %9 = alloca i64, align 8
  %10 = alloca i32, align 4
  %11 = alloca i32, align 4
  store ptr %0, ptr %5, align 8, !tbaa !10
  store ptr %1, ptr %6, align 8, !tbaa !17
  store i64 %2, ptr %7, align 8, !tbaa !13
  call void @llvm.lifetime.start.p0(i64 256, ptr %8) #7
  call void @llvm.lifetime.start.p0(i64 8, ptr %9) #7
  store i64 0, ptr %9, align 8, !tbaa !13
  call void @llvm.lifetime.start.p0(i64 4, ptr %10) #7
  store i32 0, ptr %10, align 4, !tbaa !4
  %12 = load i64, ptr %7, align 8, !tbaa !13
  %13 = icmp ule i64 %12, 256
  %14 = zext i1 %13 to i32
  %15 = icmp ne i32 %14, 0
  %16 = zext i1 %15 to i32
  %17 = call i32 @test_true(ptr noundef @.str.31, i32 noundef 80, ptr noundef @.str.63, i32 noundef %16)
  %18 = icmp ne i32 %17, 0
  br i1 %18, label %20, label %19

19:                                               ; preds = %3
  store i32 0, ptr %4, align 4
  store i32 1, ptr %11, align 4
  br label %42

20:                                               ; preds = %3
  %21 = load ptr, ptr %5, align 8, !tbaa !10
  %22 = getelementptr inbounds [256 x i8], ptr %8, i64 0, i64 0
  %23 = call i32 @EVP_PKEY_get_octet_string_param(ptr noundef %21, ptr noundef @.str.64, ptr noundef %22, i64 noundef 256, ptr noundef %9)
  store i32 %23, ptr %10, align 4, !tbaa !4
  %24 = load i32, ptr %10, align 4, !tbaa !4
  %25 = icmp ne i32 %24, 0
  %26 = zext i1 %25 to i32
  %27 = call i32 @test_true(ptr noundef @.str.31, i32 noundef 85, ptr noundef @.str.65, i32 noundef %26)
  %28 = icmp ne i32 %27, 0
  br i1 %28, label %30, label %29

29:                                               ; preds = %20
  store i32 0, ptr %4, align 4
  store i32 1, ptr %11, align 4
  br label %42

30:                                               ; preds = %20
  %31 = load ptr, ptr %6, align 8, !tbaa !17
  %32 = icmp ne ptr %31, null
  br i1 %32, label %33, label %41

33:                                               ; preds = %30
  %34 = getelementptr inbounds [256 x i8], ptr %8, i64 0, i64 0
  %35 = load i64, ptr %9, align 8, !tbaa !13
  %36 = load ptr, ptr %6, align 8, !tbaa !17
  %37 = load i64, ptr %7, align 8, !tbaa !13
  %38 = call i32 @test_mem_eq(ptr noundef @.str.31, i32 noundef 87, ptr noundef @.str.66, ptr noundef @.str.67, ptr noundef %34, i64 noundef %35, ptr noundef %36, i64 noundef %37)
  %39 = icmp ne i32 %38, 0
  br i1 %39, label %41, label %40

40:                                               ; preds = %33
  store i32 0, ptr %4, align 4
  store i32 1, ptr %11, align 4
  br label %42

41:                                               ; preds = %33, %30
  store i32 1, ptr %4, align 4
  store i32 1, ptr %11, align 4
  br label %42

42:                                               ; preds = %41, %40, %29, %19
  call void @llvm.lifetime.end.p0(i64 4, ptr %10) #7
  call void @llvm.lifetime.end.p0(i64 8, ptr %9) #7
  call void @llvm.lifetime.end.p0(i64 256, ptr %8) #7
  %43 = load i32, ptr %4, align 4
  ret i32 %43
}