; Function Attrs: nounwind uwtable
define internal fastcc range(i32 0, 2) i32 @cmpkey(ptr noundef %0, ptr noundef %1, i64 noundef %2) unnamed_addr #1 {
  %4 = alloca [256 x i8], align 16
  %5 = alloca i64, align 8
  call void @llvm.lifetime.start.p0(i64 256, ptr nonnull %4) #7
  call void @llvm.lifetime.start.p0(i64 8, ptr nonnull %5) #7
  store i64 0, ptr %5, align 8, !tbaa !11
  %6 = icmp ult i64 %2, 257
  %7 = zext i1 %6 to i32
  %8 = tail call i32 @test_true(ptr noundef nonnull @.str.31, i32 noundef 80, ptr noundef nonnull @.str.63, i32 noundef %7) #7
  %.not = icmp eq i32 %8, 0
  br i1 %.not, label %19, label %9

9:                                                ; preds = %3
  %10 = call i32 @EVP_PKEY_get_octet_string_param(ptr noundef %0, ptr noundef nonnull @.str.64, ptr noundef nonnull %4, i64 noundef 256, ptr noundef nonnull %5) #7
  %11 = icmp ne i32 %10, 0
  %12 = zext i1 %11 to i32
  %13 = call i32 @test_true(ptr noundef nonnull @.str.31, i32 noundef 85, ptr noundef nonnull @.str.65, i32 noundef %12) #7
  %.not7 = icmp eq i32 %13, 0
  br i1 %.not7, label %19, label %14

14:                                               ; preds = %9
  %.not8 = icmp eq ptr %1, null
  br i1 %.not8, label %18, label %15

15:                                               ; preds = %14
  %16 = load i64, ptr %5, align 8, !tbaa !11
  %17 = call i32 @test_mem_eq(ptr noundef nonnull @.str.31, i32 noundef 87, ptr noundef nonnull @.str.66, ptr noundef nonnull @.str.67, ptr noundef nonnull %4, i64 noundef %16, ptr noundef nonnull %1, i64 noundef %2) #7
  %.not9 = icmp eq i32 %17, 0
  br i1 %.not9, label %19, label %18

18:                                               ; preds = %15, %14
  br label %19

19:                                               ; preds = %15, %9, %3, %18
  %.0 = phi i32 [ 1, %18 ], [ 0, %3 ], [ 0, %9 ], [ 0, %15 ]
  call void @llvm.lifetime.end.p0(i64 8, ptr nonnull %5) #7
  call void @llvm.lifetime.end.p0(i64 256, ptr nonnull %4) #7
  ret i32 %.0
}